target datalayout = "e-m:e-p270:32:32-p271:32:32-p272:64:64-i64:64-i128:128-f80:128-n8:16:32:64-S128"
target triple = "x86_64-pc-linux-gnu"

%struct._aim_family = type { i32, i32, ptr, i16, ptr, ptr }
%struct._GList = type { ptr, ptr, ptr }

@.str.110 = private unnamed_addr constant [8 x i8] c"Unknown\00", align 1
@.str.453 = private unnamed_addr constant [10 x i8] c"%s (0x%x)\00", align 1
@families = internal global ptr null, align 8

; Function Attrs: nounwind null_pointer_is_valid sspstrong uwtable
define internal ptr @aim_get_family(i16 noundef zeroext %0) #3 {
  %2 = alloca ptr, align 8
  %3 = alloca i16, align 2
  %4 = alloca ptr, align 8
  %5 = alloca ptr, align 8
  %6 = alloca i32, align 4
  store i16 %0, ptr %3, align 2
  call void @llvm.lifetime.start.p0(i64 8, ptr %4) #13
  %7 = load ptr, ptr @families, align 8
  store ptr %7, ptr %4, align 8
  br label %8

8:                                                ; preds = %30, %1
  %9 = load ptr, ptr %4, align 8
  %10 = icmp ne ptr %9, null
  br i1 %10, label %11, label %31

11:                                               ; preds = %8
  call void @llvm.lifetime.start.p0(i64 8, ptr %5) #13
  %12 = load ptr, ptr %4, align 8
  %13 = getelementptr inbounds nuw %struct._GList, ptr %12, i32 0, i32 0
  %14 = load ptr, ptr %13, align 8
  store ptr %14, ptr %5, align 8
  %15 = load ptr, ptr %5, align 8
  %16 = getelementptr inbounds nuw %struct._aim_family, ptr %15, i32 0, i32 3
  %17 = load i16, ptr %16, align 8
  %18 = zext i16 %17 to i32
  %19 = load i16, ptr %3, align 2
  %20 = zext i16 %19 to i32
  %21 = icmp eq i32 %18, %20
  br i1 %21, label %22, label %24

22:                                               ; preds = %11
  %23 = load ptr, ptr %5, align 8
  store ptr %23, ptr %2, align 8
  store i32 1, ptr %6, align 4
  br label %28

24:                                               ; preds = %11
  %25 = load ptr, ptr %4, align 8
  %26 = getelementptr inbounds nuw %struct._GList, ptr %25, i32 0, i32 1
  %27 = load ptr, ptr %26, align 8
  store ptr %27, ptr %4, align 8
  store i32 0, ptr %6, align 4
  br label %28

28:                                               ; preds = %24, %22
  call void @llvm.lifetime.end.p0(i64 8, ptr %5) #13
  %29 = load i32, ptr %6, align 4
  switch i32 %29, label %32 [
    i32 0, label %30
  ]

30:                                               ; preds = %28
  br label %8, !llvm.loop !8

31:                                               ; preds = %8
  store ptr null, ptr %2, align 8
  store i32 1, ptr %6, align 4
  br label %32

32:                                               ; preds = %31, %28
  call void @llvm.lifetime.end.p0(i64 8, ptr %4) #13
  %33 = load ptr, ptr %2, align 8
  ret ptr %33
}

; Function Attrs: null_pointer_is_valid sspstrong uwtable
define internal void @aim_generic_family(ptr noundef %0, i32 noundef %1) #0 {
  %3 = alloca ptr, align 8
  %4 = alloca i32, align 4
  %5 = alloca ptr, align 8
  store ptr %0, ptr %3, align 8
  store i32 %1, ptr %4, align 4
  call void @llvm.lifetime.start.p0(i64 8, ptr %5) #13
  %6 = load i32, ptr %4, align 4
  %7 = trunc i32 %6 to i16
  %8 = call ptr @aim_get_family(i16 noundef zeroext %7)
  store ptr %8, ptr %5, align 8
  %9 = load ptr, ptr %3, align 8
  %10 = load ptr, ptr %3, align 8
  %11 = call i64 @llvm.objectsize.i64.p0(ptr %10, i1 false, i1 true, i1 true)
  %12 = load ptr, ptr %5, align 8
  %13 = icmp ne ptr %12, null
  br i1 %13, label %14, label %18

14:                                               ; preds = %2
  %15 = load ptr, ptr %5, align 8
  %16 = getelementptr inbounds nuw %struct._aim_family, ptr %15, i32 0, i32 4
  %17 = load ptr, ptr %16, align 8
  br label %19

18:                                               ; preds = %2
  br label %19

19:                                               ; preds = %18, %14
  %20 = phi ptr [ %17, %14 ], [ @.str.110, %18 ]
  %21 = load i32, ptr %4, align 4
  %22 = call i32 (ptr, i64, i32, i64, ptr, ...) @__snprintf_chk(ptr noundef %9, i64 noundef 240, i32 noundef 2, i64 noundef %11, ptr noundef @.str.453, ptr noundef %20, i32 noundef %21)
  call void @llvm.lifetime.end.p0(i64 8, ptr %5) #13
  ret void
}