; Function Attrs: nofree null_pointer_is_valid sspstrong uwtable
define internal void @aim_generic_family(ptr noundef %0, i32 noundef %1) #1 {
  %3 = trunc i32 %1 to i16
  %.0813.i = load ptr, ptr @families, align 8
  %.not14.i = icmp eq ptr %.0813.i, null
  br i1 %.not14.i, label %aim_get_family.exit.thread, label %.lr.ph.i

4:                                                ; preds = %.lr.ph.i
  %5 = getelementptr inbounds nuw i8, ptr %.0815.i, i64 8
  %.08.i = load ptr, ptr %5, align 8
  %.not.i = icmp eq ptr %.08.i, null
  br i1 %.not.i, label %aim_get_family.exit.thread, label %.lr.ph.i

.lr.ph.i:                                         ; preds = %2, %4
  %.0815.i = phi ptr [ %.08.i, %4 ], [ %.0813.i, %2 ]
  %6 = load ptr, ptr %.0815.i, align 8
  %7 = getelementptr inbounds nuw i8, ptr %6, i64 16
  %8 = load i16, ptr %7, align 8
  %.not10.i = icmp eq i16 %8, %3
  br i1 %.not10.i, label %aim_get_family.exit, label %4

aim_get_family.exit:                              ; preds = %.lr.ph.i
  %.not = icmp eq ptr %6, null
  br i1 %.not, label %aim_get_family.exit.thread, label %9

9:                                                ; preds = %aim_get_family.exit
  %10 = getelementptr inbounds nuw i8, ptr %6, i64 24
  %11 = load ptr, ptr %10, align 8
  br label %aim_get_family.exit.thread

aim_get_family.exit.thread:                       ; preds = %4, %2, %aim_get_family.exit, %9
  %12 = phi ptr [ %11, %9 ], [ @.str.110, %aim_get_family.exit ], [ @.str.110, %2 ], [ @.str.110, %4 ]
  %13 = tail call i32 (ptr, i64, i32, i64, ptr, ...) @__snprintf_chk(ptr noundef %0, i64 noundef 240, i32 noundef 2, i64 noundef -1, ptr noundef nonnull @.str.453, ptr noundef %12, i32 noundef %1)
  ret void
}